target datalayout = "e-m:e-p270:32:32-p271:32:32-p272:64:64-i64:64-i128:128-f80:128-n8:16:32:64-S128"
target triple = "x86_64-unknown-linux-gnu"

%"struct.url::URLComponentSource" = type { ptr, ptr, ptr, ptr, ptr, ptr, ptr, ptr }

; Function Attrs: mustprogress nounwind uwtable
define linkonce_odr dso_local void @_ZN3url18URLComponentSourceIcEC2EPKc(ptr noundef nonnull align 8 dereferenceable(64) %this, ptr noundef %default_value) unnamed_addr #1 comdat align 2 {
entry:
  %this.addr = alloca ptr, align 8
  %default_value.addr = alloca ptr, align 8
  store ptr %this, ptr %this.addr, align 8
  store ptr %default_value, ptr %default_value.addr, align 8
  %this1 = load ptr, ptr %this.addr, align 8
  %scheme = getelementptr inbounds %"struct.url::URLComponentSource", ptr %this1, i32 0, i32 0
  %0 = load ptr, ptr %default_value.addr, align 8
  store ptr %0, ptr %scheme, align 8
  %username = getelementptr inbounds %"struct.url::URLComponentSource", ptr %this1, i32 0, i32 1
  %1 = load ptr, ptr %default_value.addr, align 8
  store ptr %1, ptr %username, align 8
  %password = getelementptr inbounds %"struct.url::URLComponentSource", ptr %this1, i32 0, i32 2
  %2 = load ptr, ptr %default_value.addr, align 8
  store ptr %2, ptr %password, align 8
  %host = getelementptr inbounds %"struct.url::URLComponentSource", ptr %this1, i32 0, i32 3
  %3 = load ptr, ptr %default_value.addr, align 8
  store ptr %3, ptr %host, align 8
  %port = getelementptr inbounds %"struct.url::URLComponentSource", ptr %this1, i32 0, i32 4
  %4 = load ptr, ptr %default_value.addr, align 8
  store ptr %4, ptr %port, align 8
  %path = getelementptr inbounds %"struct.url::URLComponentSource", ptr %this1, i32 0, i32 5
  %5 = load ptr, ptr %default_value.addr, align 8
  store ptr %5, ptr %path, align 8
  %query = getelementptr inbounds %"struct.url::URLComponentSource", ptr %this1, i32 0, i32 6
  %6 = load ptr, ptr %default_value.addr, align 8
  store ptr %6, ptr %query, align 8
  %ref = getelementptr inbounds %"struct.url::URLComponentSource", ptr %this1, i32 0, i32 7
  %7 = load ptr, ptr %default_value.addr, align 8
  store ptr %7, ptr %ref, align 8
  ret void
}

; Function Attrs: mustprogress uwtable
define dso_local noundef zeroext i1 @_ZN3url25CanonicalizeFileSystemURLEPKciRKNS_6ParsedEPNS_16CharsetConverterEPNS_12CanonOutputTIcEEPS2_(ptr noundef %spec, i32 noundef %spec_len, ptr noundef nonnull align 8 dereferenceable(72) %parsed, ptr noundef %charset_converter, ptr noundef %output, ptr noundef %new_parsed) #0 {
entry:
  %spec.addr = alloca ptr, align 8
  %spec_len.addr = alloca i32, align 4
  %parsed.addr = alloca ptr, align 8
  %charset_converter.addr = alloca ptr, align 8
  %output.addr = alloca ptr, align 8
  %new_parsed.addr = alloca ptr, align 8
  %ref.tmp = alloca %"struct.url::URLComponentSource", align 8
  store ptr %spec, ptr %spec.addr, align 8
  store i32 %spec_len, ptr %spec_len.addr, align 4
  store ptr %parsed, ptr %parsed.addr, align 8
  store ptr %charset_converter, ptr %charset_converter.addr, align 8
  store ptr %output, ptr %output.addr, align 8
  store ptr %new_parsed, ptr %new_parsed.addr, align 8
  %0 = load ptr, ptr %spec.addr, align 8
  %1 = load ptr, ptr %spec.addr, align 8
  call void @_ZN3url18URLComponentSourceIcEC2EPKc(ptr noundef nonnull align 8 dereferenceable(64) %ref.tmp, ptr noundef %1)
  %2 = load ptr, ptr %parsed.addr, align 8
  %3 = load ptr, ptr %charset_converter.addr, align 8
  %4 = load ptr, ptr %output.addr, align 8
  %5 = load ptr, ptr %new_parsed.addr, align 8
  %call = call noundef zeroext i1 @_ZN3url12_GLOBAL__N_127DoCanonicalizeFileSystemURLIchEEbPKT_RKNS_18URLComponentSourceIS2_EERKNS_6ParsedEPNS_16CharsetConverterEPNS_12CanonOutputTIcEEPS9_(ptr noundef %0, ptr noundef nonnull align 8 dereferenceable(64) %ref.tmp, ptr noundef nonnull align 8 dereferenceable(72) %2, ptr noundef %3, ptr noundef %4, ptr noundef %5)
  ret i1 %call
}