; Function Attrs: mustprogress uwtable
define dso_local noundef zeroext i1 @_ZN3url25CanonicalizeFileSystemURLEPKciRKNS_6ParsedEPNS_16CharsetConverterEPNS_12CanonOutputTIcEEPS2_(ptr noundef %spec, i32 noundef %spec_len, ptr noundef nonnull align 8 dereferenceable(72) %parsed, ptr noundef %charset_converter, ptr noundef %output, ptr noundef %new_parsed) local_unnamed_addr #0 {
entry:
  %ref.tmp = alloca %"struct.url::URLComponentSource", align 8
  store ptr %spec, ptr %ref.tmp, align 8
  %username.i = getelementptr inbounds i8, ptr %ref.tmp, i64 8
  store ptr %spec, ptr %username.i, align 8
  %password.i = getelementptr inbounds i8, ptr %ref.tmp, i64 16
  store ptr %spec, ptr %password.i, align 8
  %host.i = getelementptr inbounds i8, ptr %ref.tmp, i64 24
  store ptr %spec, ptr %host.i, align 8
  %port.i = getelementptr inbounds i8, ptr %ref.tmp, i64 32
  store ptr %spec, ptr %port.i, align 8
  %path.i = getelementptr inbounds i8, ptr %ref.tmp, i64 40
  store ptr %spec, ptr %path.i, align 8
  %query.i = getelementptr inbounds i8, ptr %ref.tmp, i64 48
  store ptr %spec, ptr %query.i, align 8
  %ref.i = getelementptr inbounds i8, ptr %ref.tmp, i64 56
  store ptr %spec, ptr %ref.i, align 8
  %call = call fastcc noundef zeroext i1 @_ZN3url12_GLOBAL__N_127DoCanonicalizeFileSystemURLIchEEbPKT_RKNS_18URLComponentSourceIS2_EERKNS_6ParsedEPNS_16CharsetConverterEPNS_12CanonOutputTIcEEPS9_(ptr noundef %spec, ptr noundef nonnull align 8 dereferenceable(64) %ref.tmp, ptr noundef nonnull align 8 dereferenceable(72) %parsed, ptr noundef %charset_converter, ptr noundef %output, ptr noundef %new_parsed)
  ret i1 %call
}